; Function Attrs: nounwind uwtable
define dso_local noundef i32 @RM_ReplyWithString(ptr noundef readonly captures(none) %0, ptr noundef %1) #0 {
  %3 = getelementptr inbounds nuw i8, ptr %0, i64 48
  %4 = load i32, ptr %3, align 8, !tbaa !87
  %5 = and i32 %4, 16
  %.not.i = icmp eq i32 %5, 0
  br i1 %.not.i, label %11, label %6

6:                                                ; preds = %2
  %7 = getelementptr inbounds nuw i8, ptr %0, i64 24
  %8 = load ptr, ptr %7, align 8, !tbaa !272
  %.not6.i = icmp eq ptr %8, null
  br i1 %.not6.i, label %moduleGetReplyClient.exit.thread, label %9

9:                                                ; preds = %6
  %10 = getelementptr inbounds nuw i8, ptr %8, i64 72
  br label %moduleGetReplyClient.exit

11:                                               ; preds = %2
  %12 = getelementptr inbounds nuw i8, ptr %0, i64 16
  br label %moduleGetReplyClient.exit

moduleGetReplyClient.exit:                        ; preds = %9, %11
  %.0.i.in = phi ptr [ %10, %9 ], [ %12, %11 ]
  %.0.i = load ptr, ptr %.0.i.in, align 8, !tbaa !28
  %13 = icmp eq ptr %.0.i, null
  br i1 %13, label %moduleGetReplyClient.exit.thread, label %14

14:                                               ; preds = %moduleGetReplyClient.exit
  tail call void @addReplyBulk(ptr noundef nonnull %.0.i, ptr noundef %1) #35
  br label %moduleGetReplyClient.exit.thread

moduleGetReplyClient.exit.thread:                 ; preds = %6, %moduleGetReplyClient.exit, %14
  ret i32 0
}